; ModuleID = '51/256.c'
source_filename = "51/256.c"
target datalayout = "e-m:e-p270:32:32-p271:32:32-p272:64:64-i64:64-f80:128-n8:16:32:64-S128"
target triple = "x86_64-pc-linux-gnu"

@.str = private unnamed_addr constant [4 x i8] c"%d\0A\00", align 1
@.str.1 = private unnamed_addr constant [3 x i8] c"NO\00", align 1
@.str.2 = private unnamed_addr constant [2 x i8] c"\0A\00", align 1
@.str.3 = private unnamed_addr constant [3 x i8] c"%s\00", align 1

; Function Attrs: noinline nounwind uwtable
define dso_local i32 @main() #0 {
  %1 = alloca i32, align 4
  %2 = alloca i32, align 4
  %3 = alloca i32, align 4
  %4 = alloca i32, align 4
  %5 = alloca i32, align 4
  %6 = alloca i32, align 4
  %7 = alloca i32, align 4
  %8 = alloca i32, align 4
  %9 = alloca [600 x i32], align 16
  %10 = alloca [600 x i8], align 16
  %11 = alloca [600 x [5 x i8]], align 16
  %12 = alloca i32, align 4
  %13 = alloca [5 x i8], align 1
  %14 = alloca i32, align 4
  store i32 0, i32* %1, align 4
  %15 = bitcast [600 x i32]* %9 to i8*
  call void @llvm.memset.p0i8.i64(i8* align 16 %15, i8 0, i64 2400, i1 false)
  %16 = call i32 (i8*, ...) @__isoc99_scanf(i8* getelementptr inbounds ([4 x i8], [4 x i8]* @.str, i64 0, i64 0), i32* %2)
  %17 = getelementptr inbounds [600 x i8], [600 x i8]* %10, i64 0, i64 0
  %18 = call i32 (i8*, ...) bitcast (i32 (...)* @gets to i32 (i8*, ...)*)(i8* %17)
  %19 = getelementptr inbounds [600 x i8], [600 x i8]* %10, i64 0, i64 0
  %20 = call i64 @strlen(i8* %19) #5
  %21 = trunc i64 %20 to i32
  store i32 %21, i32* %7, align 4
  store i32 0, i32* %3, align 4
  store i32 0, i32* %6, align 4
  br label %22

22:                                               ; preds = %83, %75, %0
  %23 = load i32, i32* %3, align 4
  %24 = load i32, i32* %7, align 4
  %25 = load i32, i32* %2, align 4
  %26 = sub nsw i32 %24, %25
  %27 = add nsw i32 %26, 1
  %28 = icmp slt i32 %23, %27
  br i1 %28, label %29, label %100

29:                                               ; preds = %22
  store i32 -1, i32* %12, align 4
  %30 = load i32, i32* %3, align 4
  store i32 %30, i32* %4, align 4
  br label %31

31:                                               ; preds = %47, %29
  %32 = load i32, i32* %4, align 4
  %33 = load i32, i32* %3, align 4
  %34 = load i32, i32* %2, align 4
  %35 = add nsw i32 %33, %34
  %36 = icmp slt i32 %32, %35
  br i1 %36, label %37, label %50

37:                                               ; preds = %31
  %38 = load i32, i32* %4, align 4
  %39 = sext i32 %38 to i64
  %40 = getelementptr inbounds [600 x i8], [600 x i8]* %10, i64 0, i64 %39
  %41 = load i8, i8* %40, align 1
  %42 = load i32, i32* %4, align 4
  %43 = load i32, i32* %3, align 4
  %44 = sub nsw i32 %42, %43
  %45 = sext i32 %44 to i64
  %46 = getelementptr inbounds [5 x i8], [5 x i8]* %13, i64 0, i64 %45
  store i8 %41, i8* %46, align 1
  br label %47

47:                                               ; preds = %37
  %48 = load i32, i32* %4, align 4
  %49 = add nsw i32 %48, 1
  store i32 %49, i32* %4, align 4
  br label %31

50:                                               ; preds = %31
  %51 = load i32, i32* %2, align 4
  %52 = sext i32 %51 to i64
  %53 = getelementptr inbounds [5 x i8], [5 x i8]* %13, i64 0, i64 %52
  store i8 0, i8* %53, align 1
  store i32 0, i32* %4, align 4
  br label %54

54:                                               ; preds = %69, %50
  %55 = load i32, i32* %4, align 4
  %56 = load i32, i32* %6, align 4
  %57 = icmp slt i32 %55, %56
  br i1 %57, label %58, label %72

58:                                               ; preds = %54
  %59 = load i32, i32* %4, align 4
  %60 = sext i32 %59 to i64
  %61 = getelementptr inbounds [600 x [5 x i8]], [600 x [5 x i8]]* %11, i64 0, i64 %60
  %62 = getelementptr inbounds [5 x i8], [5 x i8]* %61, i64 0, i64 0
  %63 = getelementptr inbounds [5 x i8], [5 x i8]* %13, i64 0, i64 0
  %64 = call i32 @strcmp(i8* %62, i8* %63) #5
  %65 = icmp eq i32 %64, 0
  br i1 %65, label %66, label %68

66:                                               ; preds = %58
  %67 = load i32, i32* %4, align 4
  store i32 %67, i32* %12, align 4
  br label %72

68:                                               ; preds = %58
  br label %69

69:                                               ; preds = %68
  %70 = load i32, i32* %4, align 4
  %71 = add nsw i32 %70, 1
  store i32 %71, i32* %4, align 4
  br label %54

72:                                               ; preds = %66, %54
  %73 = load i32, i32* %12, align 4
  %74 = icmp ne i32 %73, -1
  br i1 %74, label %75, label %83

75:                                               ; preds = %72
  %76 = load i32, i32* %12, align 4
  %77 = sext i32 %76 to i64
  %78 = getelementptr inbounds [600 x i32], [600 x i32]* %9, i64 0, i64 %77
  %79 = load i32, i32* %78, align 4
  %80 = add nsw i32 %79, 1
  store i32 %80, i32* %78, align 4
  %81 = load i32, i32* %3, align 4
  %82 = add nsw i32 %81, 1
  store i32 %82, i32* %3, align 4
  br label %22

83:                                               ; preds = %72
  %84 = load i32, i32* %6, align 4
  %85 = sext i32 %84 to i64
  %86 = getelementptr inbounds [600 x [5 x i8]], [600 x [5 x i8]]* %11, i64 0, i64 %85
  %87 = getelementptr inbounds [5 x i8], [5 x i8]* %86, i64 0, i64 0
  %88 = getelementptr inbounds [5 x i8], [5 x i8]* %13, i64 0, i64 0
  %89 = call i8* @strcpy(i8* %87, i8* %88) #6
  %90 = load i32, i32* %6, align 4
  %91 = add nsw i32 %90, 1
  store i32 %91, i32* %6, align 4
  %92 = load i32, i32* %6, align 4
  %93 = sub nsw i32 %92, 1
  %94 = sext i32 %93 to i64
  %95 = getelementptr inbounds [600 x i32], [600 x i32]* %9, i64 0, i64 %94
  %96 = load i32, i32* %95, align 4
  %97 = add nsw i32 %96, 1
  store i32 %97, i32* %95, align 4
  %98 = load i32, i32* %3, align 4
  %99 = add nsw i32 %98, 1
  store i32 %99, i32* %3, align 4
  br label %22

100:                                              ; preds = %22
  store i32 0, i32* %8, align 4
  store i32 0, i32* %3, align 4
  br label %101

101:                                              ; preds = %118, %100
  %102 = load i32, i32* %3, align 4
  %103 = load i32, i32* %6, align 4
  %104 = icmp slt i32 %102, %103
  br i1 %104, label %105, label %121

105:                                              ; preds = %101
  %106 = load i32, i32* %3, align 4
  %107 = sext i32 %106 to i64
  %108 = getelementptr inbounds [600 x i32], [600 x i32]* %9, i64 0, i64 %107
  %109 = load i32, i32* %108, align 4
  %110 = load i32, i32* %8, align 4
  %111 = icmp sgt i32 %109, %110
  br i1 %111, label %112, label %117

112:                                              ; preds = %105
  %113 = load i32, i32* %3, align 4
  %114 = sext i32 %113 to i64
  %115 = getelementptr inbounds [600 x i32], [600 x i32]* %9, i64 0, i64 %114
  %116 = load i32, i32* %115, align 4
  store i32 %116, i32* %8, align 4
  br label %117

117:                                              ; preds = %112, %105
  br label %118

118:                                              ; preds = %117
  %119 = load i32, i32* %3, align 4
  %120 = add nsw i32 %119, 1
  store i32 %120, i32* %3, align 4
  br label %101

121:                                              ; preds = %101
  %122 = load i32, i32* %8, align 4
  %123 = icmp sle i32 %122, 1
  br i1 %123, label %124, label %126

124:                                              ; preds = %121
  %125 = call i32 (i8*, ...) @printf(i8* getelementptr inbounds ([3 x i8], [3 x i8]* @.str.1, i64 0, i64 0))
  br label %160

126:                                              ; preds = %121
  store i32 1, i32* %14, align 4
  %127 = load i32, i32* %8, align 4
  %128 = call i32 (i8*, ...) @printf(i8* getelementptr inbounds ([4 x i8], [4 x i8]* @.str, i64 0, i64 0), i32 %127)
  store i32 0, i32* %3, align 4
  br label %129

129:                                              ; preds = %156, %126
  %130 = load i32, i32* %3, align 4
  %131 = load i32, i32* %6, align 4
  %132 = icmp slt i32 %130, %131
  br i1 %132, label %133, label %159

133:                                              ; preds = %129
  %134 = load i32, i32* %3, align 4
  %135 = sext i32 %134 to i64
  %136 = getelementptr inbounds [600 x i32], [600 x i32]* %9, i64 0, i64 %135
  %137 = load i32, i32* %136, align 4
  %138 = load i32, i32* %8, align 4
  %139 = icmp eq i32 %137, %138
  br i1 %139, label %140, label %155

140:                                              ; preds = %133
  %141 = load i32, i32* %14, align 4
  %142 = icmp eq i32 %141, 0
  br i1 %142, label %143, label %145

143:                                              ; preds = %140
  %144 = call i32 (i8*, ...) @printf(i8* getelementptr inbounds ([2 x i8], [2 x i8]* @.str.2, i64 0, i64 0))
  br label %145

145:                                              ; preds = %143, %140
  %146 = load i32, i32* %3, align 4
  %147 = sext i32 %146 to i64
  %148 = getelementptr inbounds [600 x [5 x i8]], [600 x [5 x i8]]* %11, i64 0, i64 %147
  %149 = getelementptr inbounds [5 x i8], [5 x i8]* %148, i64 0, i64 0
  %150 = call i32 (i8*, ...) @printf(i8* getelementptr inbounds ([3 x i8], [3 x i8]* @.str.3, i64 0, i64 0), i8* %149)
  %151 = load i32, i32* %14, align 4
  %152 = icmp ne i32 %151, 0
  br i1 %152, label %153, label %154

153:                                              ; preds = %145
  store i32 0, i32* %14, align 4
  br label %154

154:                                              ; preds = %153, %145
  br label %155

155:                                              ; preds = %154, %133
  br label %156

156:                                              ; preds = %155
  %157 = load i32, i32* %3, align 4
  %158 = add nsw i32 %157, 1
  store i32 %158, i32* %3, align 4
  br label %129

159:                                              ; preds = %129
  br label %160

160:                                              ; preds = %159, %124
  ret i32 0
}

; Function Attrs: argmemonly nounwind willreturn
declare void @llvm.memset.p0i8.i64(i8* nocapture writeonly, i8, i64, i1 immarg) #1

declare dso_local i32 @__isoc99_scanf(i8*, ...) #2

declare dso_local i32 @gets(...) #2

; Function Attrs: nounwind readonly
declare dso_local i64 @strlen(i8*) #3

; Function Attrs: nounwind readonly
declare dso_local i32 @strcmp(i8*, i8*) #3

; Function Attrs: nounwind
declare dso_local i8* @strcpy(i8*, i8*) #4

declare dso_local i32 @printf(i8*, ...) #2


!llvm.module.flags = !{!0}
!llvm.ident = !{!1}

!0 = !{i32 1, !"wchar_size", i32 4}
!1 = !{!"clang version 10.0.0-4ubuntu1 "}
